; Function Attrs: mustprogress nounwind uwtable
define hidden noundef ptr @_ZN14JfrOSInterface18JfrOSInterfaceImpl18cpu_info_interfaceEv(ptr nocapture noundef nonnull align 8 dereferenceable(32) %0) local_unnamed_addr #1 align 2 {
  %2 = load ptr, ptr %0, align 8
  %3 = icmp eq ptr %2, null
  br i1 %3, label %4, label %26

4:                                                ; preds = %1
  %5 = tail call align 8 ptr @llvm.threadlocal.address.p0(ptr align 8 @_ZN6Thread12_thr_currentE)
  %6 = load ptr, ptr %5, align 8
  %7 = getelementptr inbounds i8, ptr %6, i64 800
  %8 = load ptr, ptr %7, align 8
  %9 = getelementptr inbounds i8, ptr %8, i64 24
  %10 = load ptr, ptr %9, align 8
  %11 = getelementptr inbounds i8, ptr %8, i64 32
  %12 = load ptr, ptr %11, align 8
  %13 = getelementptr inbounds i8, ptr %8, i64 40
  %14 = load ptr, ptr %13, align 8
  %15 = getelementptr inbounds i8, ptr %8, i64 8
  %16 = load i64, ptr %15, align 8
  %17 = tail call noundef ptr @_Z12AllocateHeapm8MEMFLAGSN17AllocFailStrategy13AllocFailEnumE(i64 noundef 8, i8 noundef zeroext 9, i32 noundef 0) #14
  tail call void @_ZN23CPUInformationInterfaceC1Ev(ptr noundef nonnull align 8 dereferenceable(8) %17) #14
  %18 = tail call noundef zeroext i1 @_ZN23CPUInformationInterface10initializeEv(ptr noundef nonnull align 8 dereferenceable(8) %17) #14
  br i1 %18, label %20, label %19

19:                                               ; preds = %4
  tail call void @_ZN23CPUInformationInterfaceD1Ev(ptr noundef nonnull align 8 dereferenceable(8) %17) #14
  tail call void @_Z8FreeHeapPv(ptr noundef nonnull %17) #14
  br label %20

20:                                               ; preds = %19, %4
  %.0.i = phi ptr [ %17, %4 ], [ null, %19 ]
  %21 = load ptr, ptr %10, align 8
  %.not.i.i.i.i.i = icmp eq ptr %21, null
  br i1 %.not.i.i.i.i.i, label %23, label %22

22:                                               ; preds = %20
  tail call void @_ZN5Arena17set_size_in_bytesEm(ptr noundef nonnull align 8 dereferenceable(48) %8, i64 noundef %16) #14
  tail call void @_ZN5Chunk9next_chopEPS_(ptr noundef nonnull %10) #14
  br label %23

23:                                               ; preds = %22, %20
  %24 = load ptr, ptr %11, align 8
  %.not8.i.i.i.i.i = icmp eq ptr %24, %12
  br i1 %.not8.i.i.i.i.i, label %_ZL16create_interfaceI23CPUInformationInterfaceEPT_v.exit, label %25

25:                                               ; preds = %23
  store ptr %10, ptr %9, align 8
  store ptr %12, ptr %11, align 8
  store ptr %14, ptr %13, align 8
  br label %_ZL16create_interfaceI23CPUInformationInterfaceEPT_v.exit

_ZL16create_interfaceI23CPUInformationInterfaceEPT_v.exit: ; preds = %23, %25
  store ptr %.0.i, ptr %0, align 8
  br label %26

26:                                               ; preds = %_ZL16create_interfaceI23CPUInformationInterfaceEPT_v.exit, %1
  %27 = phi ptr [ %.0.i, %_ZL16create_interfaceI23CPUInformationInterfaceEPT_v.exit ], [ %2, %1 ]
  ret ptr %27
}